target datalayout = "e-m:e-p270:32:32-p271:32:32-p272:64:64-i64:64-i128:128-f80:128-n8:16:32:64-S128"
target triple = "x86_64-pc-linux-gnu"

%struct.keccak_st = type { [5 x [5 x i64]], [168 x i8], i64, i64, i64, i8, %struct.prov_sha3_meth_st, i32 }
%struct.prov_sha3_meth_st = type { ptr, ptr, ptr }

; Function Attrs: nounwind uwtable
define void @ossl_sha3_reset(ptr noundef %0) #0 {
  %2 = alloca ptr, align 8
  store ptr %0, ptr %2, align 8, !tbaa !3
  %3 = load ptr, ptr %2, align 8, !tbaa !3
  %4 = getelementptr inbounds nuw %struct.keccak_st, ptr %3, i32 0, i32 0
  %5 = getelementptr inbounds [5 x [5 x i64]], ptr %4, i64 0, i64 0
  call void @llvm.memset.p0.i64(ptr align 8 %5, i8 0, i64 200, i1 false)
  %6 = load ptr, ptr %2, align 8, !tbaa !3
  %7 = getelementptr inbounds nuw %struct.keccak_st, ptr %6, i32 0, i32 4
  store i64 0, ptr %7, align 8, !tbaa !8
  %8 = load ptr, ptr %2, align 8, !tbaa !3
  %9 = getelementptr inbounds nuw %struct.keccak_st, ptr %8, i32 0, i32 7
  store i32 0, ptr %9, align 8, !tbaa !13
  ret void
}

; Function Attrs: nounwind uwtable
define i32 @ossl_sha3_init(ptr noundef %0, i8 noundef zeroext %1, i64 noundef %2) #0 {
  %4 = alloca i32, align 4
  %5 = alloca ptr, align 8
  %6 = alloca i8, align 1
  %7 = alloca i64, align 8
  %8 = alloca i64, align 8
  %9 = alloca i32, align 4
  store ptr %0, ptr %5, align 8, !tbaa !3
  store i8 %1, ptr %6, align 1, !tbaa !14
  store i64 %2, ptr %7, align 8, !tbaa !15
  call void @llvm.lifetime.start.p0(i64 8, ptr %8) #5
  %10 = load i64, ptr %7, align 8, !tbaa !15
  %11 = mul i64 %10, 2
  %12 = sub i64 1600, %11
  %13 = udiv i64 %12, 8
  store i64 %13, ptr %8, align 8, !tbaa !15
  %14 = load i64, ptr %8, align 8, !tbaa !15
  %15 = icmp ule i64 %14, 168
  br i1 %15, label %16, label %28

16:                                               ; preds = %3
  %17 = load ptr, ptr %5, align 8, !tbaa !3
  call void @ossl_sha3_reset(ptr noundef %17)
  %18 = load i64, ptr %8, align 8, !tbaa !15
  %19 = load ptr, ptr %5, align 8, !tbaa !3
  %20 = getelementptr inbounds nuw %struct.keccak_st, ptr %19, i32 0, i32 2
  store i64 %18, ptr %20, align 8, !tbaa !16
  %21 = load i64, ptr %7, align 8, !tbaa !15
  %22 = udiv i64 %21, 8
  %23 = load ptr, ptr %5, align 8, !tbaa !3
  %24 = getelementptr inbounds nuw %struct.keccak_st, ptr %23, i32 0, i32 3
  store i64 %22, ptr %24, align 8, !tbaa !17
  %25 = load i8, ptr %6, align 1, !tbaa !14
  %26 = load ptr, ptr %5, align 8, !tbaa !3
  %27 = getelementptr inbounds nuw %struct.keccak_st, ptr %26, i32 0, i32 5
  store i8 %25, ptr %27, align 8, !tbaa !18
  store i32 1, ptr %4, align 4
  store i32 1, ptr %9, align 4
  br label %29

28:                                               ; preds = %3
  store i32 0, ptr %4, align 4
  store i32 1, ptr %9, align 4
  br label %29

29:                                               ; preds = %28, %16
  call void @llvm.lifetime.end.p0(i64 8, ptr %8) #5
  %30 = load i32, ptr %4, align 4
  ret i32 %30
}

; Function Attrs: nounwind uwtable
define i32 @ossl_keccak_init(ptr noundef %0, i8 noundef zeroext %1, i64 noundef %2, i64 noundef %3) #0 {
  %5 = alloca ptr, align 8
  %6 = alloca i8, align 1
  %7 = alloca i64, align 8
  %8 = alloca i64, align 8
  %9 = alloca i32, align 4
  store ptr %0, ptr %5, align 8, !tbaa !3
  store i8 %1, ptr %6, align 1, !tbaa !14
  store i64 %2, ptr %7, align 8, !tbaa !15
  store i64 %3, ptr %8, align 8, !tbaa !15
  call void @llvm.lifetime.start.p0(i64 4, ptr %9) #5
  %10 = load ptr, ptr %5, align 8, !tbaa !3
  %11 = load i8, ptr %6, align 1, !tbaa !14
  %12 = load i64, ptr %7, align 8, !tbaa !15
  %13 = call i32 @ossl_sha3_init(ptr noundef %10, i8 noundef zeroext %11, i64 noundef %12)
  store i32 %13, ptr %9, align 4, !tbaa !19
  %14 = load i32, ptr %9, align 4, !tbaa !19
  %15 = icmp ne i32 %14, 0
  br i1 %15, label %16, label %21

16:                                               ; preds = %4
  %17 = load i64, ptr %8, align 8, !tbaa !15
  %18 = udiv i64 %17, 8
  %19 = load ptr, ptr %5, align 8, !tbaa !3
  %20 = getelementptr inbounds nuw %struct.keccak_st, ptr %19, i32 0, i32 3
  store i64 %18, ptr %20, align 8, !tbaa !17
  br label %21

21:                                               ; preds = %16, %4
  %22 = load i32, ptr %9, align 4, !tbaa !19
  call void @llvm.lifetime.end.p0(i64 4, ptr %9) #5
  ret i32 %22
}