; Function Attrs: mustprogress nofree norecurse nosync nounwind willreturn memory(argmem: write) uwtable
define range(i32 0, 2) i32 @ossl_keccak_init(ptr noundef writeonly captures(none) %0, i8 noundef zeroext %1, i64 noundef %2, i64 noundef %3) local_unnamed_addr #0 {
  %5 = shl i64 %2, 1
  %6 = sub i64 1600, %5
  %7 = icmp ult i64 %6, 1352
  br i1 %7, label %8, label %ossl_sha3_init.exit.thread

8:                                                ; preds = %4
  %9 = lshr i64 %6, 3
  tail call void @llvm.memset.p0.i64(ptr noundef nonnull align 8 dereferenceable(200) %0, i8 0, i64 200, i1 false)
  %10 = getelementptr inbounds nuw i8, ptr %0, i64 384
  store i64 0, ptr %10, align 8, !tbaa !3
  %11 = getelementptr inbounds nuw i8, ptr %0, i64 424
  store i32 0, ptr %11, align 8, !tbaa !11
  %12 = getelementptr inbounds nuw i8, ptr %0, i64 368
  store i64 %9, ptr %12, align 8, !tbaa !12
  %13 = getelementptr inbounds nuw i8, ptr %0, i64 376
  %14 = getelementptr inbounds nuw i8, ptr %0, i64 392
  store i8 %1, ptr %14, align 8, !tbaa !14
  %15 = lshr i64 %3, 3
  store i64 %15, ptr %13, align 8, !tbaa !13
  br label %ossl_sha3_init.exit.thread

ossl_sha3_init.exit.thread:                       ; preds = %4, %8
  %.0.i8 = phi i32 [ 1, %8 ], [ 0, %4 ]
  ret i32 %.0.i8
}